; Function Attrs: mustprogress uwtable
define void @_ZN13SettingDialog4loadEv(ptr noundef nonnull align 8 dereferenceable(320) %0) local_unnamed_addr #3 align 2 personality ptr @__gxx_personality_v0 {
  %2 = getelementptr inbounds i8, ptr %0, i64 72
  %3 = tail call ptr @_ZN22RichParameterListFrame5beginEv(ptr noundef nonnull align 8 dereferenceable(200) %2)
  %4 = getelementptr inbounds i8, ptr %3, i64 40
  %5 = load ptr, ptr %4, align 8
  %6 = getelementptr inbounds i8, ptr %0, i64 56
  %7 = load ptr, ptr %6, align 8
  %8 = tail call noundef nonnull align 8 dereferenceable(8) ptr @_ZNK13RichParameter5valueEv(ptr noundef nonnull align 8 dereferenceable(56) %7)
  %9 = load ptr, ptr %5, align 8
  %10 = getelementptr inbounds i8, ptr %9, i64 424
  %11 = load ptr, ptr %10, align 8
  tail call void %11(ptr noundef nonnull align 8 dereferenceable(99) %5, ptr noundef nonnull align 8 dereferenceable(8) %8)
  tail call void @_ZN13SettingDialog5applyEv(ptr noundef nonnull align 8 dereferenceable(320) %0)
  ret void
}